ARM GAS  C:\Users\SAISWA~1\AppData\Local\Temp\ccveBM64.s 			page 1


   1              		.syntax unified
   2              		.cpu cortex-m3
   3              		.fpu softvfp
   4              		.eabi_attribute 20, 1
   5              		.eabi_attribute 21, 1
   6              		.eabi_attribute 23, 3
   7              		.eabi_attribute 24, 1
   8              		.eabi_attribute 25, 1
   9              		.eabi_attribute 26, 1
  10              		.eabi_attribute 30, 1
  11              		.eabi_attribute 34, 1
  12              		.eabi_attribute 18, 4
  13              		.thumb
  14              		.syntax unified
  15              		.file	"Arcadian.c"
  16              		.text
  17              	.Ltext0:
  18              		.cfi_sections	.debug_frame
  19              		.section	.text.Functsk_arcadian,"ax",%progbits
  20              		.align	2
  21              		.global	Functsk_arcadian
  22              		.thumb
  23              		.thumb_func
  24              		.type	Functsk_arcadian, %function
  25              	Functsk_arcadian:
  26              	.LFB110:
  27              		.file 1 "source\\asw\\Arcadian.c"
   1:source\asw/Arcadian.c **** /* ========================================
   2:source\asw/Arcadian.c ****  *
   3:source\asw/Arcadian.c ****  * Copyright YOUR COMPANY, THE YEAR
   4:source\asw/Arcadian.c ****  * All Rights Reserved
   5:source\asw/Arcadian.c ****  * UNPUBLISHED, LICENSED SOFTWARE.
   6:source\asw/Arcadian.c ****  *
   7:source\asw/Arcadian.c ****  * CONFIDENTIAL AND PROPRIETARY INFORMATION
   8:source\asw/Arcadian.c ****  * WHICH IS THE PROPERTY OF your company.
   9:source\asw/Arcadian.c ****  *
  10:source\asw/Arcadian.c ****  * ========================================
  11:source\asw/Arcadian.c **** */
  12:source\asw/Arcadian.c **** 
  13:source\asw/Arcadian.c **** /* [] END OF FILE */
  14:source\asw/Arcadian.c **** 
  15:source\asw/Arcadian.c **** #include "Arcadian.h"
  16:source\asw/Arcadian.c **** 
  17:source\asw/Arcadian.c **** static int RedHigh_GreenLow = 1;
  18:source\asw/Arcadian.c **** static int YellowHigh_RedLow = 0;
  19:source\asw/Arcadian.c **** static int GreenHigh_RedLow = 0;
  20:source\asw/Arcadian.c **** static int count = 0;
  21:source\asw/Arcadian.c **** static int curr_index = 0;
  22:source\asw/Arcadian.c **** static int total_index = 9;
  23:source\asw/Arcadian.c **** 
  24:source\asw/Arcadian.c **** typedef struct
  25:source\asw/Arcadian.c **** {
  26:source\asw/Arcadian.c ****     uint8_t Red;
  27:source\asw/Arcadian.c ****     uint8_t Green;
  28:source\asw/Arcadian.c ****     uint8_t Blue;
  29:source\asw/Arcadian.c ****     uint16_t time;
  30:source\asw/Arcadian.c **** }RG__Glow_t;
ARM GAS  C:\Users\SAISWA~1\AppData\Local\Temp\ccveBM64.s 			page 2


  31:source\asw/Arcadian.c **** 
  32:source\asw/Arcadian.c **** const RG__Glow_t RG_glowtable_1[] = {
  33:source\asw/Arcadian.c **** //Red Green Blue TimeInMS
  34:source\asw/Arcadian.c **** {255, 0, 0, 500},
  35:source\asw/Arcadian.c **** {0, 255, 0, 500},
  36:source\asw/Arcadian.c **** {0, 0, 255, 500},
  37:source\asw/Arcadian.c **** {0, 0, 0, 100},
  38:source\asw/Arcadian.c **** {255, 255, 255, 100},
  39:source\asw/Arcadian.c **** {0, 0, 0, 100},
  40:source\asw/Arcadian.c **** {255, 255, 255, 100},
  41:source\asw/Arcadian.c **** {0, 0, 0, 100},
  42:source\asw/Arcadian.c **** {255, 255, 255, 100}
  43:source\asw/Arcadian.c **** };
  44:source\asw/Arcadian.c **** 
  45:source\asw/Arcadian.c **** /** 
  46:source\asw/Arcadian.c ****  * \brief This task is activated by alrm_22ms cyclically
  47:source\asw/Arcadian.c ****  * This task has lower priority than the tsk_game and the tsk_game can preempt this task
  48:source\asw/Arcadian.c ****  * tsk_arcadian will make the Red, Yellow and Green LEDs glow in form of a travelling light and
  49:source\asw/Arcadian.c ****  * will make the RGB light glow in a particular sequence defined in the array RG_glowtable_1[]
  50:source\asw/Arcadian.c **** */
  51:source\asw/Arcadian.c **** TASK(tsk_arcadian)
  52:source\asw/Arcadian.c **** {
  28              		.loc 1 52 0
  29              		.cfi_startproc
  30              		@ args = 0, pretend = 0, frame = 0
  31              		@ frame_needed = 0, uses_anonymous_args = 0
  32 0000 38B5     		push	{r3, r4, r5, lr}
  33              		.cfi_def_cfa_offset 16
  34              		.cfi_offset 3, -16
  35              		.cfi_offset 4, -12
  36              		.cfi_offset 5, -8
  37              		.cfi_offset 14, -4
  53:source\asw/Arcadian.c ****     count++;
  38              		.loc 1 53 0
  39 0002 464A     		ldr	r2, .L8
  40 0004 1368     		ldr	r3, [r2]
  41 0006 0133     		adds	r3, r3, #1
  42 0008 1360     		str	r3, [r2]
  54:source\asw/Arcadian.c ****     
  55:source\asw/Arcadian.c ****     //Fader
  56:source\asw/Arcadian.c ****     if(RedHigh_GreenLow == 1)
  43              		.loc 1 56 0
  44 000a 454B     		ldr	r3, .L8+4
  45 000c 1B68     		ldr	r3, [r3]
  46 000e 012B     		cmp	r3, #1
  47 0010 19D1     		bne	.L2
  57:source\asw/Arcadian.c ****     {
  58:source\asw/Arcadian.c ****         PWM_Red_WriteCompare(PWM_Red_ReadCompare()+5);
  48              		.loc 1 58 0
  49 0012 FFF7FEFF 		bl	PWM_Red_ReadCompare
  50              	.LVL0:
  51 0016 0530     		adds	r0, r0, #5
  52 0018 C0B2     		uxtb	r0, r0
  53 001a FFF7FEFF 		bl	PWM_Red_WriteCompare
  54              	.LVL1:
  59:source\asw/Arcadian.c ****         PWM_Green_WriteCompare(PWM_Green_ReadCompare()-5);
  55              		.loc 1 59 0
ARM GAS  C:\Users\SAISWA~1\AppData\Local\Temp\ccveBM64.s 			page 3


  56 001e FFF7FEFF 		bl	PWM_Green_ReadCompare
  57              	.LVL2:
  58 0022 0538     		subs	r0, r0, #5
  59 0024 C0B2     		uxtb	r0, r0
  60 0026 FFF7FEFF 		bl	PWM_Green_WriteCompare
  61              	.LVL3:
  60:source\asw/Arcadian.c ****         if(PWM_Red_ReadCompare() == PWM_Red_ReadPeriod())
  62              		.loc 1 60 0
  63 002a FFF7FEFF 		bl	PWM_Red_ReadCompare
  64              	.LVL4:
  65 002e 0446     		mov	r4, r0
  66 0030 FFF7FEFF 		bl	PWM_Red_ReadPeriod
  67              	.LVL5:
  68 0034 8442     		cmp	r4, r0
  69 0036 40D1     		bne	.L3
  61:source\asw/Arcadian.c ****         {
  62:source\asw/Arcadian.c ****             RedHigh_GreenLow = 0;
  70              		.loc 1 62 0
  71 0038 0022     		movs	r2, #0
  72 003a 394B     		ldr	r3, .L8+4
  73 003c 1A60     		str	r2, [r3]
  63:source\asw/Arcadian.c ****             YellowHigh_RedLow = 1;
  74              		.loc 1 63 0
  75 003e 0122     		movs	r2, #1
  76 0040 364B     		ldr	r3, .L8
  77 0042 5A60     		str	r2, [r3, #4]
  78 0044 39E0     		b	.L3
  79              	.L2:
  64:source\asw/Arcadian.c ****         }
  65:source\asw/Arcadian.c ****     }
  66:source\asw/Arcadian.c ****     else if(YellowHigh_RedLow == 1)
  80              		.loc 1 66 0
  81 0046 354B     		ldr	r3, .L8
  82 0048 5B68     		ldr	r3, [r3, #4]
  83 004a 012B     		cmp	r3, #1
  84 004c 18D1     		bne	.L4
  67:source\asw/Arcadian.c ****     {
  68:source\asw/Arcadian.c ****         PWM_Red_WriteCompare(PWM_Red_ReadCompare()-5);
  85              		.loc 1 68 0
  86 004e FFF7FEFF 		bl	PWM_Red_ReadCompare
  87              	.LVL6:
  88 0052 0538     		subs	r0, r0, #5
  89 0054 C0B2     		uxtb	r0, r0
  90 0056 FFF7FEFF 		bl	PWM_Red_WriteCompare
  91              	.LVL7:
  69:source\asw/Arcadian.c ****         PWM_Yellow_WriteCompare(PWM_Yellow_ReadCompare()+5);
  92              		.loc 1 69 0
  93 005a FFF7FEFF 		bl	PWM_Yellow_ReadCompare
  94              	.LVL8:
  95 005e 0530     		adds	r0, r0, #5
  96 0060 C0B2     		uxtb	r0, r0
  97 0062 FFF7FEFF 		bl	PWM_Yellow_WriteCompare
  98              	.LVL9:
  70:source\asw/Arcadian.c ****         if(PWM_Yellow_ReadCompare() == PWM_Yellow_ReadPeriod())
  99              		.loc 1 70 0
 100 0066 FFF7FEFF 		bl	PWM_Yellow_ReadCompare
 101              	.LVL10:
ARM GAS  C:\Users\SAISWA~1\AppData\Local\Temp\ccveBM64.s 			page 4


 102 006a 0446     		mov	r4, r0
 103 006c FFF7FEFF 		bl	PWM_Yellow_ReadPeriod
 104              	.LVL11:
 105 0070 8442     		cmp	r4, r0
 106 0072 22D1     		bne	.L3
  71:source\asw/Arcadian.c ****         {
  72:source\asw/Arcadian.c ****             YellowHigh_RedLow = 0;
 107              		.loc 1 72 0
 108 0074 294B     		ldr	r3, .L8
 109 0076 0022     		movs	r2, #0
 110 0078 5A60     		str	r2, [r3, #4]
  73:source\asw/Arcadian.c ****             GreenHigh_RedLow = 1;
 111              		.loc 1 73 0
 112 007a 0122     		movs	r2, #1
 113 007c 9A60     		str	r2, [r3, #8]
 114 007e 1CE0     		b	.L3
 115              	.L4:
  74:source\asw/Arcadian.c ****         }
  75:source\asw/Arcadian.c ****     }
  76:source\asw/Arcadian.c ****     else if(GreenHigh_RedLow == 1)
 116              		.loc 1 76 0
 117 0080 264B     		ldr	r3, .L8
 118 0082 9B68     		ldr	r3, [r3, #8]
 119 0084 012B     		cmp	r3, #1
 120 0086 18D1     		bne	.L3
  77:source\asw/Arcadian.c ****     {
  78:source\asw/Arcadian.c ****         PWM_Green_WriteCompare(PWM_Green_ReadCompare()+5);
 121              		.loc 1 78 0
 122 0088 FFF7FEFF 		bl	PWM_Green_ReadCompare
 123              	.LVL12:
 124 008c 0530     		adds	r0, r0, #5
 125 008e C0B2     		uxtb	r0, r0
 126 0090 FFF7FEFF 		bl	PWM_Green_WriteCompare
 127              	.LVL13:
  79:source\asw/Arcadian.c ****         PWM_Yellow_WriteCompare(PWM_Yellow_ReadCompare()-5);
 128              		.loc 1 79 0
 129 0094 FFF7FEFF 		bl	PWM_Yellow_ReadCompare
 130              	.LVL14:
 131 0098 0538     		subs	r0, r0, #5
 132 009a C0B2     		uxtb	r0, r0
 133 009c FFF7FEFF 		bl	PWM_Yellow_WriteCompare
 134              	.LVL15:
  80:source\asw/Arcadian.c ****         if(PWM_Green_ReadCompare() == PWM_Green_ReadPeriod())
 135              		.loc 1 80 0
 136 00a0 FFF7FEFF 		bl	PWM_Green_ReadCompare
 137              	.LVL16:
 138 00a4 0446     		mov	r4, r0
 139 00a6 FFF7FEFF 		bl	PWM_Green_ReadPeriod
 140              	.LVL17:
 141 00aa 8442     		cmp	r4, r0
 142 00ac 05D1     		bne	.L3
  81:source\asw/Arcadian.c ****         {
  82:source\asw/Arcadian.c ****             RedHigh_GreenLow = 1;
 143              		.loc 1 82 0
 144 00ae 0122     		movs	r2, #1
 145 00b0 1B4B     		ldr	r3, .L8+4
 146 00b2 1A60     		str	r2, [r3]
ARM GAS  C:\Users\SAISWA~1\AppData\Local\Temp\ccveBM64.s 			page 5


  83:source\asw/Arcadian.c ****             GreenHigh_RedLow = 0;
 147              		.loc 1 83 0
 148 00b4 0022     		movs	r2, #0
 149 00b6 194B     		ldr	r3, .L8
 150 00b8 9A60     		str	r2, [r3, #8]
 151              	.L3:
  84:source\asw/Arcadian.c ****         }
  85:source\asw/Arcadian.c ****     }
  86:source\asw/Arcadian.c ****         
  87:source\asw/Arcadian.c **** 
  88:source\asw/Arcadian.c ****     //LED GLOWER
  89:source\asw/Arcadian.c ****    if(curr_index % total_index == 0)
 152              		.loc 1 89 0
 153 00ba 184B     		ldr	r3, .L8
 154 00bc DA68     		ldr	r2, [r3, #12]
 155 00be 194B     		ldr	r3, .L8+8
 156 00c0 83FB0231 		smull	r3, r1, r3, r2
 157 00c4 D317     		asrs	r3, r2, #31
 158 00c6 C3EB6103 		rsb	r3, r3, r1, asr #1
 159 00ca 03EBC303 		add	r3, r3, r3, lsl #3
 160 00ce 9A42     		cmp	r2, r3
 161 00d0 02D1     		bne	.L5
  90:source\asw/Arcadian.c ****     {
  91:source\asw/Arcadian.c ****         curr_index = 0;
 162              		.loc 1 91 0
 163 00d2 0022     		movs	r2, #0
 164 00d4 114B     		ldr	r3, .L8
 165 00d6 DA60     		str	r2, [r3, #12]
 166              	.L5:
  92:source\asw/Arcadian.c ****     }
  93:source\asw/Arcadian.c ****         
  94:source\asw/Arcadian.c **** 
  95:source\asw/Arcadian.c ****     LED_RGB_Set(RG_glowtable_1[curr_index].Red, RG_glowtable_1[curr_index].Green, RG_glowtable_1[cu
 167              		.loc 1 95 0
 168 00d8 104C     		ldr	r4, .L8
 169 00da E368     		ldr	r3, [r4, #12]
 170 00dc 124D     		ldr	r5, .L8+12
 171 00de 5A00     		lsls	r2, r3, #1
 172 00e0 D018     		adds	r0, r2, r3
 173 00e2 4100     		lsls	r1, r0, #1
 174 00e4 0846     		mov	r0, r1
 175 00e6 2944     		add	r1, r1, r5
 176 00e8 8A78     		ldrb	r2, [r1, #2]	@ zero_extendqisi2
 177 00ea 4978     		ldrb	r1, [r1, #1]	@ zero_extendqisi2
 178 00ec 285C     		ldrb	r0, [r5, r0]	@ zero_extendqisi2
 179 00ee FFF7FEFF 		bl	LED_RGB_Set
 180              	.LVL18:
  96:source\asw/Arcadian.c ****             
  97:source\asw/Arcadian.c ****     if(count >= RG_glowtable_1[curr_index].time/22)
 181              		.loc 1 97 0
 182 00f2 E268     		ldr	r2, [r4, #12]
 183 00f4 02EB4201 		add	r1, r2, r2, lsl #1
 184 00f8 4B00     		lsls	r3, r1, #1
 185 00fa 2B44     		add	r3, r3, r5
 186 00fc 9B88     		ldrh	r3, [r3, #4]
 187 00fe 0B49     		ldr	r1, .L8+16
 188 0100 A1FB0313 		umull	r1, r3, r1, r3
ARM GAS  C:\Users\SAISWA~1\AppData\Local\Temp\ccveBM64.s 			page 6


 189 0104 2168     		ldr	r1, [r4]
 190 0106 B1EB131F 		cmp	r1, r3, lsr #4
 191 010a 03DB     		blt	.L6
  98:source\asw/Arcadian.c ****     {
  99:source\asw/Arcadian.c ****        count = 0;
 192              		.loc 1 99 0
 193 010c 0021     		movs	r1, #0
 194 010e 2160     		str	r1, [r4]
 100:source\asw/Arcadian.c ****        curr_index++;
 195              		.loc 1 100 0
 196 0110 0132     		adds	r2, r2, #1
 197 0112 E260     		str	r2, [r4, #12]
 198              	.L6:
 101:source\asw/Arcadian.c ****     }
 102:source\asw/Arcadian.c ****     
 103:source\asw/Arcadian.c ****     TerminateTask();
 199              		.loc 1 103 0
 200 0114 FFF7FEFF 		bl	EE_oo_TerminateTask
 201              	.LVL19:
 202 0118 38BD     		pop	{r3, r4, r5, pc}
 203              	.L9:
 204 011a 00BF     		.align	2
 205              	.L8:
 206 011c 00000000 		.word	.LANCHOR0
 207 0120 00000000 		.word	.LANCHOR1
 208 0124 398EE338 		.word	954437177
 209 0128 00000000 		.word	.LANCHOR2
 210 012c A38B2EBA 		.word	-1171354717
 211              		.cfi_endproc
 212              	.LFE110:
 213              		.size	Functsk_arcadian, .-Functsk_arcadian
 214              		.global	RG_glowtable_1
 215              		.section	.rodata
 216              		.align	2
 217              		.set	.LANCHOR2,. + 0
 218              		.type	RG_glowtable_1, %object
 219              		.size	RG_glowtable_1, 54
 220              	RG_glowtable_1:
 221 0000 FF       		.byte	-1
 222 0001 00       		.byte	0
 223 0002 00       		.byte	0
 224 0003 00       		.space	1
 225 0004 F401     		.short	500
 226 0006 00       		.byte	0
 227 0007 FF       		.byte	-1
 228 0008 00       		.byte	0
 229 0009 00       		.space	1
 230 000a F401     		.short	500
 231 000c 00       		.byte	0
 232 000d 00       		.byte	0
 233 000e FF       		.byte	-1
 234 000f 00       		.space	1
 235 0010 F401     		.short	500
 236 0012 00       		.byte	0
 237 0013 00       		.byte	0
 238 0014 00       		.byte	0
 239 0015 00       		.space	1
ARM GAS  C:\Users\SAISWA~1\AppData\Local\Temp\ccveBM64.s 			page 7


 240 0016 6400     		.short	100
 241 0018 FF       		.byte	-1
 242 0019 FF       		.byte	-1
 243 001a FF       		.byte	-1
 244 001b 00       		.space	1
 245 001c 6400     		.short	100
 246 001e 00       		.byte	0
 247 001f 00       		.byte	0
 248 0020 00       		.byte	0
 249 0021 00       		.space	1
 250 0022 6400     		.short	100
 251 0024 FF       		.byte	-1
 252 0025 FF       		.byte	-1
 253 0026 FF       		.byte	-1
 254 0027 00       		.space	1
 255 0028 6400     		.short	100
 256 002a 00       		.byte	0
 257 002b 00       		.byte	0
 258 002c 00       		.byte	0
 259 002d 00       		.space	1
 260 002e 6400     		.short	100
 261 0030 FF       		.byte	-1
 262 0031 FF       		.byte	-1
 263 0032 FF       		.byte	-1
 264 0033 00       		.space	1
 265 0034 6400     		.short	100
 266              		.data
 267              		.align	2
 268              		.set	.LANCHOR1,. + 0
 269              		.type	RedHigh_GreenLow, %object
 270              		.size	RedHigh_GreenLow, 4
 271              	RedHigh_GreenLow:
 272 0000 01000000 		.word	1
 273              		.bss
 274              		.align	2
 275              		.set	.LANCHOR0,. + 0
 276              		.type	count, %object
 277              		.size	count, 4
 278              	count:
 279 0000 00000000 		.space	4
 280              		.type	YellowHigh_RedLow, %object
 281              		.size	YellowHigh_RedLow, 4
 282              	YellowHigh_RedLow:
 283 0004 00000000 		.space	4
 284              		.type	GreenHigh_RedLow, %object
 285              		.size	GreenHigh_RedLow, 4
 286              	GreenHigh_RedLow:
 287 0008 00000000 		.space	4
 288              		.type	curr_index, %object
 289              		.size	curr_index, 4
 290              	curr_index:
 291 000c 00000000 		.space	4
 292              		.text
 293              	.Letext0:
 294              		.file 2 "c:\\program files (x86)\\cypress\\psoc creator\\4.4\\psoc creator\\import\\gnu\\arm\\5.4.
 295              		.file 3 "c:\\program files (x86)\\cypress\\psoc creator\\4.4\\psoc creator\\import\\gnu\\arm\\5.4.
 296              		.file 4 "Generated_Source\\PSoC5/cytypes.h"
ARM GAS  C:\Users\SAISWA~1\AppData\Local\Temp\ccveBM64.s 			page 8


 297              		.file 5 "Generated_Source\\PSoC5/ErikaOS_1_common_ee_types.inc"
 298              		.file 6 "Generated_Source\\PSoC5/ErikaOS_1_cortex_mx_ee_cpu.inc"
 299              		.file 7 ".\\source\\bsw/RGB_Led.h"
 300              		.file 8 "Generated_Source\\PSoC5/ErikaOS_1_ee_oo_intfunc.inc"
 301              		.file 9 "Generated_Source\\PSoC5/ErikaOS_1_cortex_mx_ee_context.inc"
 302              		.file 10 "Generated_Source\\PSoC5/ErikaOS_1_common_ee_primitives.inc"
 303              		.file 11 "Generated_Source\\PSoC5/core_cm3.h"
 304              		.file 12 "Generated_Source\\PSoC5/PWM_Red.h"
 305              		.file 13 "Generated_Source\\PSoC5/PWM_Green.h"
 306              		.file 14 "Generated_Source\\PSoC5/PWM_Yellow.h"
 307              		.file 15 "Generated_Source\\PSoC5/ErikaOS_1_ee_oo_kernel.inc"