ARM GAS  C:\Users\SAISWA~1\AppData\Local\Temp\ccImtKqm.s 			page 1


   1              		.syntax unified
   2              		.cpu cortex-m3
   3              		.fpu softvfp
   4              		.eabi_attribute 20, 1
   5              		.eabi_attribute 21, 1
   6              		.eabi_attribute 23, 3
   7              		.eabi_attribute 24, 1
   8              		.eabi_attribute 25, 1
   9              		.eabi_attribute 26, 1
  10              		.eabi_attribute 30, 1
  11              		.eabi_attribute 34, 1
  12              		.eabi_attribute 18, 4
  13              		.thumb
  14              		.syntax unified
  15              		.file	"seven.c"
  16              		.text
  17              	.Ltext0:
  18              		.cfi_sections	.debug_frame
  19              		.section	.text.Seven_Write,"ax",%progbits
  20              		.align	2
  21              		.global	Seven_Write
  22              		.thumb
  23              		.thumb_func
  24              		.type	Seven_Write, %function
  25              	Seven_Write:
  26              	.LFB1:
  27              		.file 1 "source\\bsw\\seven.c"
   1:source\bsw/seven.c **** /**
   2:source\bsw/seven.c **** * \file <filename>
   3:source\bsw/seven.c **** * \author <author-name>
   4:source\bsw/seven.c **** * \date <date>
   5:source\bsw/seven.c **** *
   6:source\bsw/seven.c **** * \brief <Symbolic File name>
   7:source\bsw/seven.c **** *
   8:source\bsw/seven.c **** * \copyright Copyright ©2016
   9:source\bsw/seven.c **** * Department of electrical engineering and information technology, Hochschule Darmstadt - Universit
  10:source\bsw/seven.c **** * Permission to use, copy, modify, and distribute this software and its documentation for education
  11:source\bsw/seven.c **** * (unless permitted by h_da) and official h_da projects, is hereby granted for enrolled students of
  12:source\bsw/seven.c **** * this paragraph and the following paragraph appear in all copies, modifications, and distributions
  13:source\bsw/seven.c **** * Contact Prof.Dr.-Ing. Peter Fromm, peter.fromm@h-da.de, Birkenweg 8 64295 Darmstadt - GERMANY for
  14:source\bsw/seven.c **** *
  15:source\bsw/seven.c **** * \warning This software is a PROTOTYPE version and is not designed or intended for use in producti
  16:source\bsw/seven.c **** * The user represents and warrants that it will NOT use or redistribute the Software for such purpo
  17:source\bsw/seven.c **** * This prototype is for research purposes only. This software is provided "AS IS," without a warran
  18:source\bsw/seven.c **** */
  19:source\bsw/seven.c **** 
  20:source\bsw/seven.c **** /*****************************************************************************/
  21:source\bsw/seven.c **** /* Include files                                                             */
  22:source\bsw/seven.c **** /*****************************************************************************/
  23:source\bsw/seven.c **** #include "seven.h"
  24:source\bsw/seven.c **** /*****************************************************************************/
  25:source\bsw/seven.c **** /* Local pre-processor symbols/macros ('#define')                            */
  26:source\bsw/seven.c **** /*****************************************************************************/
  27:source\bsw/seven.c **** 
  28:source\bsw/seven.c **** /*****************************************************************************/
  29:source\bsw/seven.c **** /* Global variable definitions (declared in header file with 'extern')       */
  30:source\bsw/seven.c **** /*****************************************************************************/
ARM GAS  C:\Users\SAISWA~1\AppData\Local\Temp\ccImtKqm.s 			page 2


  31:source\bsw/seven.c **** 
  32:source\bsw/seven.c **** /*****************************************************************************/
  33:source\bsw/seven.c **** /* Local type definitions ('typedef')                                        */
  34:source\bsw/seven.c **** /*****************************************************************************/
  35:source\bsw/seven.c **** 
  36:source\bsw/seven.c **** /*****************************************************************************/
  37:source\bsw/seven.c **** /* Local variable definitions ('static')                                     */
  38:source\bsw/seven.c **** /*****************************************************************************/
  39:source\bsw/seven.c **** 
  40:source\bsw/seven.c **** 
  41:source\bsw/seven.c **** 
  42:source\bsw/seven.c **** /*****************************************************************************/
  43:source\bsw/seven.c **** /* Local function prototypes ('static')                                      */
  44:source\bsw/seven.c **** /*****************************************************************************/
  45:source\bsw/seven.c **** 
  46:source\bsw/seven.c **** const uint8_t Seven_Lookup[] =
  47:source\bsw/seven.c **** {
  48:source\bsw/seven.c ****     0b00111111, //0
  49:source\bsw/seven.c ****     0b00000110, //1
  50:source\bsw/seven.c ****     0b01011011, //2
  51:source\bsw/seven.c ****     0b01001111, //3
  52:source\bsw/seven.c ****     0b01100110, //4
  53:source\bsw/seven.c ****     0b01101101, //5
  54:source\bsw/seven.c ****     0b01111101, //6
  55:source\bsw/seven.c ****     0b00000111, //7 
  56:source\bsw/seven.c ****     0b01111111, //8
  57:source\bsw/seven.c ****     0b01101111, //9
  58:source\bsw/seven.c ****     0b01110111, //0x0A
  59:source\bsw/seven.c ****     0b11111111, //0x0B *Same as 8
  60:source\bsw/seven.c ****     0b00111001, //0x0C 
  61:source\bsw/seven.c ****     0b10111111, //0x0D *Same as 0
  62:source\bsw/seven.c ****     0b01111001, //0x0E
  63:source\bsw/seven.c ****     0b01110001, //0x0F
  64:source\bsw/seven.c **** };
  65:source\bsw/seven.c **** /*****************************************************************************/
  66:source\bsw/seven.c **** /* Function implementation - global ('extern') and local ('static')          */
  67:source\bsw/seven.c **** /*****************************************************************************/
  68:source\bsw/seven.c **** 
  69:source\bsw/seven.c **** /**
  70:source\bsw/seven.c ****  * To initalise the 7 seg with 0
  71:source\bsw/seven.c ****  * 
  72:source\bsw/seven.c ****  * @return RC_t error check
  73:source\bsw/seven.c ****  */
  74:source\bsw/seven.c **** RC_t Seven_init()
  75:source\bsw/seven.c **** {
  76:source\bsw/seven.c ****     Seven_Clear(SEVEN_DISPLAY_LEFT);
  77:source\bsw/seven.c ****     Seven_Clear(SEVEN_DISPLAY_RIGHT);
  78:source\bsw/seven.c ****     
  79:source\bsw/seven.c ****     return RC_SUCCESS;
  80:source\bsw/seven.c **** }
  81:source\bsw/seven.c **** 
  82:source\bsw/seven.c **** /**
  83:source\bsw/seven.c ****  * To write into one of the 7 segement displays with a value from 0x00 to 0xFF
  84:source\bsw/seven.c ****  * @param Seven_Display_t display   :   Left or Right display selector
  85:source\bsw/seven.c ****  * @param uint8 value               :   Value that is to be displayed on the 7 seg
  86:source\bsw/seven.c ****  * @return RC_t error check
  87:source\bsw/seven.c ****  */
ARM GAS  C:\Users\SAISWA~1\AppData\Local\Temp\ccImtKqm.s 			page 3


  88:source\bsw/seven.c **** RC_t Seven_Write(Seven_Display_t display, uint8_t value)
  89:source\bsw/seven.c **** {
  28              		.loc 1 89 0
  29              		.cfi_startproc
  30              		@ args = 0, pretend = 0, frame = 0
  31              		@ frame_needed = 0, uses_anonymous_args = 0
  32              	.LVL0:
  90:source\bsw/seven.c ****     if(value > 15)
  33              		.loc 1 90 0
  34 0000 0F29     		cmp	r1, #15
  35 0002 10D8     		bhi	.L5
  89:source\bsw/seven.c ****     if(value > 15)
  36              		.loc 1 89 0
  37 0004 10B5     		push	{r4, lr}
  38              		.cfi_def_cfa_offset 8
  39              		.cfi_offset 4, -8
  40              		.cfi_offset 14, -4
  41 0006 0C46     		mov	r4, r1
  91:source\bsw/seven.c ****     {
  92:source\bsw/seven.c ****         return RC_BAD_PARAM;
  93:source\bsw/seven.c ****     }
  94:source\bsw/seven.c ****     
  95:source\bsw/seven.c ****     if(SEVEN_DISPLAY_RIGHT == display) //Selecting in which display to write
  42              		.loc 1 95 0
  43 0008 0128     		cmp	r0, #1
  44 000a 03D1     		bne	.L3
  45              	.LBB2:
  96:source\bsw/seven.c ****     {
  97:source\bsw/seven.c ****         Pin_Sel_A_Write(0); //Selector pin, which is configured as 0 for Right and 1 for Left displ
  46              		.loc 1 97 0
  47 000c 0020     		movs	r0, #0
  48              	.LVL1:
  49 000e FFF7FEFF 		bl	Pin_Sel_A_Write
  50              	.LVL2:
  51              	.LBE2:
  52 0012 02E0     		b	.L4
  53              	.LVL3:
  54              	.L3:
  55              	.LBB3:
  98:source\bsw/seven.c ****     }
  99:source\bsw/seven.c ****     else
 100:source\bsw/seven.c ****     {
 101:source\bsw/seven.c ****         Pin_Sel_A_Write(1);
  56              		.loc 1 101 0
  57 0014 0120     		movs	r0, #1
  58              	.LVL4:
  59 0016 FFF7FEFF 		bl	Pin_Sel_A_Write
  60              	.LVL5:
  61              	.L4:
  62              	.LBE3:
 102:source\bsw/seven.c ****     }
 103:source\bsw/seven.c ****     
 104:source\bsw/seven.c ****     uint8_t data = Seven_Lookup[value]; //Checks entered number in the LUT
 105:source\bsw/seven.c ****     SevenSeg_Reg_Write(data); //Write to the control register, the bits(uint8)
  63              		.loc 1 105 0
  64 001a 044B     		ldr	r3, .L8
  65 001c 185D     		ldrb	r0, [r3, r4]	@ zero_extendqisi2
ARM GAS  C:\Users\SAISWA~1\AppData\Local\Temp\ccImtKqm.s 			page 4


  66 001e FFF7FEFF 		bl	SevenSeg_Reg_Write
  67              	.LVL6:
 106:source\bsw/seven.c ****     
 107:source\bsw/seven.c ****     return RC_SUCCESS;
  68              		.loc 1 107 0
  69 0022 0020     		movs	r0, #0
  70 0024 10BD     		pop	{r4, pc}
  71              	.LVL7:
  72              	.L5:
  73              		.cfi_def_cfa_offset 0
  74              		.cfi_restore 4
  75              		.cfi_restore 14
  92:source\bsw/seven.c ****     }
  76              		.loc 1 92 0
  77 0026 0220     		movs	r0, #2
  78              	.LVL8:
  79 0028 7047     		bx	lr
  80              	.L9:
  81 002a 00BF     		.align	2
  82              	.L8:
  83 002c 00000000 		.word	.LANCHOR0
  84              		.cfi_endproc
  85              	.LFE1:
  86              		.size	Seven_Write, .-Seven_Write
  87              		.section	.text.Seven_Write_Hex,"ax",%progbits
  88              		.align	2
  89              		.global	Seven_Write_Hex
  90              		.thumb
  91              		.thumb_func
  92              		.type	Seven_Write_Hex, %function
  93              	Seven_Write_Hex:
  94              	.LFB2:
 108:source\bsw/seven.c ****     
 109:source\bsw/seven.c **** }
 110:source\bsw/seven.c **** 
 111:source\bsw/seven.c **** /**
 112:source\bsw/seven.c ****  * To write into one of the 7 segement displays in the Hex value
 113:source\bsw/seven.c ****  * @param uint8 value               :   Value that is to be displayed on the 7 seg, this value is p
 114:source\bsw/seven.c ****  * @return RC_t error check
 115:source\bsw/seven.c ****  */
 116:source\bsw/seven.c **** RC_t Seven_Write_Hex(uint8_t value)
 117:source\bsw/seven.c **** {
  95              		.loc 1 117 0
  96              		.cfi_startproc
  97              		@ args = 0, pretend = 0, frame = 0
  98              		@ frame_needed = 0, uses_anonymous_args = 0
  99              	.LVL9:
 100 0000 10B5     		push	{r4, lr}
 101              		.cfi_def_cfa_offset 8
 102              		.cfi_offset 4, -8
 103              		.cfi_offset 14, -4
 118:source\bsw/seven.c ****     uint8_t lower = value%16; //ex: 11%16 = 11 and 11th element in array is B
 104              		.loc 1 118 0
 105 0002 00F00F04 		and	r4, r0, #15
 106              	.LVL10:
 119:source\bsw/seven.c ****     uint8_t higher = value/16; //ex: 11/16 = 0 and then 0 will be displayed there in LEFT
 120:source\bsw/seven.c ****     
ARM GAS  C:\Users\SAISWA~1\AppData\Local\Temp\ccImtKqm.s 			page 5


 121:source\bsw/seven.c ****     Seven_Write(SEVEN_DISPLAY_LEFT,higher);
 107              		.loc 1 121 0
 108 0006 0109     		lsrs	r1, r0, #4
 109 0008 0020     		movs	r0, #0
 110              	.LVL11:
 111 000a FFF7FEFF 		bl	Seven_Write
 112              	.LVL12:
 122:source\bsw/seven.c ****     Seven_Write(SEVEN_DISPLAY_RIGHT,lower);
 113              		.loc 1 122 0
 114 000e 2146     		mov	r1, r4
 115 0010 0120     		movs	r0, #1
 116 0012 FFF7FEFF 		bl	Seven_Write
 117              	.LVL13:
 123:source\bsw/seven.c ****     
 124:source\bsw/seven.c ****     return RC_SUCCESS;
 125:source\bsw/seven.c **** }
 118              		.loc 1 125 0
 119 0016 0020     		movs	r0, #0
 120 0018 10BD     		pop	{r4, pc}
 121              		.cfi_endproc
 122              	.LFE2:
 123              		.size	Seven_Write_Hex, .-Seven_Write_Hex
 124 001a 00BF     		.section	.text.Seven_Write_Dp,"ax",%progbits
 125              		.align	2
 126              		.global	Seven_Write_Dp
 127              		.thumb
 128              		.thumb_func
 129              		.type	Seven_Write_Dp, %function
 130              	Seven_Write_Dp:
 131              	.LFB3:
 126:source\bsw/seven.c **** 
 127:source\bsw/seven.c **** /**
 128:source\bsw/seven.c ****  * To write into one of the 7 segement displays decimal pointer
 129:source\bsw/seven.c ****  * @param Seven_Display_t display   :   Left or Right display selector
 130:source\bsw/seven.c ****  * @return RC_t error check
 131:source\bsw/seven.c ****  */
 132:source\bsw/seven.c **** RC_t Seven_Write_Dp(Seven_Display_t display)
 133:source\bsw/seven.c **** {
 132              		.loc 1 133 0
 133              		.cfi_startproc
 134              		@ args = 0, pretend = 0, frame = 0
 135              		@ frame_needed = 0, uses_anonymous_args = 0
 136              	.LVL14:
 137 0000 08B5     		push	{r3, lr}
 138              		.cfi_def_cfa_offset 8
 139              		.cfi_offset 3, -8
 140              		.cfi_offset 14, -4
 134:source\bsw/seven.c ****     
 135:source\bsw/seven.c ****     if(SEVEN_DISPLAY_RIGHT == display)
 141              		.loc 1 135 0
 142 0002 0128     		cmp	r0, #1
 143 0004 03D1     		bne	.L13
 144              	.LBB4:
 136:source\bsw/seven.c ****     {
 137:source\bsw/seven.c ****         Pin_SevenSeg_SelA_Write(0);
 145              		.loc 1 137 0
 146 0006 0020     		movs	r0, #0
ARM GAS  C:\Users\SAISWA~1\AppData\Local\Temp\ccImtKqm.s 			page 6


 147              	.LVL15:
 148 0008 FFF7FEFF 		bl	Pin_SevenSeg_SelA_Write
 149              	.LVL16:
 150              	.LBE4:
 151 000c 02E0     		b	.L14
 152              	.LVL17:
 153              	.L13:
 154              	.LBB5:
 138:source\bsw/seven.c ****     }
 139:source\bsw/seven.c ****     else
 140:source\bsw/seven.c ****     {
 141:source\bsw/seven.c ****         Pin_SevenSeg_SelA_Write(1);
 155              		.loc 1 141 0
 156 000e 0120     		movs	r0, #1
 157              	.LVL18:
 158 0010 FFF7FEFF 		bl	Pin_SevenSeg_SelA_Write
 159              	.LVL19:
 160              	.L14:
 161              	.LBE5:
 142:source\bsw/seven.c ****     }
 143:source\bsw/seven.c ****     Control_Reg_7Seg_Write(0b10000000);
 162              		.loc 1 143 0
 163 0014 8020     		movs	r0, #128
 164 0016 FFF7FEFF 		bl	Control_Reg_7Seg_Write
 165              	.LVL20:
 144:source\bsw/seven.c ****     
 145:source\bsw/seven.c ****     return RC_SUCCESS;
 146:source\bsw/seven.c **** }
 166              		.loc 1 146 0
 167 001a 0020     		movs	r0, #0
 168 001c 08BD     		pop	{r3, pc}
 169              		.cfi_endproc
 170              	.LFE3:
 171              		.size	Seven_Write_Dp, .-Seven_Write_Dp
 172              		.section	.text.Seven_Clear,"ax",%progbits
 173              		.align	2
 174              		.global	Seven_Clear
 175              		.thumb
 176              		.thumb_func
 177              		.type	Seven_Clear, %function
 178              	Seven_Clear:
 179              	.LFB4:
 147:source\bsw/seven.c **** 
 148:source\bsw/seven.c **** /**
 149:source\bsw/seven.c ****  * To clear one of the 7 segement displays
 150:source\bsw/seven.c ****  * @param Seven_Display_t display   :   Left or Right display selector
 151:source\bsw/seven.c ****  * @return RC_t error check
 152:source\bsw/seven.c ****  */
 153:source\bsw/seven.c **** RC_t Seven_Clear(Seven_Display_t display)
 154:source\bsw/seven.c **** {
 180              		.loc 1 154 0
 181              		.cfi_startproc
 182              		@ args = 0, pretend = 0, frame = 0
 183              		@ frame_needed = 0, uses_anonymous_args = 0
 184              	.LVL21:
 185 0000 08B5     		push	{r3, lr}
 186              		.cfi_def_cfa_offset 8
ARM GAS  C:\Users\SAISWA~1\AppData\Local\Temp\ccImtKqm.s 			page 7


 187              		.cfi_offset 3, -8
 188              		.cfi_offset 14, -4
 155:source\bsw/seven.c ****     Seven_Write(SEVEN_DISPLAY_LEFT,0b01111111);
 189              		.loc 1 155 0
 190 0002 7F21     		movs	r1, #127
 191 0004 0020     		movs	r0, #0
 192              	.LVL22:
 193 0006 FFF7FEFF 		bl	Seven_Write
 194              	.LVL23:
 156:source\bsw/seven.c ****     Seven_Write(SEVEN_DISPLAY_RIGHT,0b01111111);
 195              		.loc 1 156 0
 196 000a 7F21     		movs	r1, #127
 197 000c 0120     		movs	r0, #1
 198 000e FFF7FEFF 		bl	Seven_Write
 199              	.LVL24:
 157:source\bsw/seven.c ****     
 158:source\bsw/seven.c ****     return RC_SUCCESS;
 159:source\bsw/seven.c **** }...
 200              		.loc 1 159 0
 201 0012 0020     		movs	r0, #0
 202 0014 08BD     		pop	{r3, pc}
 203              		.cfi_endproc
 204              	.LFE4:
 205              		.size	Seven_Clear, .-Seven_Clear
 206 0016 00BF     		.section	.text.Seven_init,"ax",%progbits
 207              		.align	2
 208              		.global	Seven_init
 209              		.thumb
 210              		.thumb_func
 211              		.type	Seven_init, %function
 212              	Seven_init:
 213              	.LFB0:
  75:source\bsw/seven.c **** {
 214              		.loc 1 75 0
 215              		.cfi_startproc
 216              		@ args = 0, pretend = 0, frame = 0
 217              		@ frame_needed = 0, uses_anonymous_args = 0
 218 0000 08B5     		push	{r3, lr}
 219              		.cfi_def_cfa_offset 8
 220              		.cfi_offset 3, -8
 221              		.cfi_offset 14, -4
  76:source\bsw/seven.c ****     Seven_Clear(SEVEN_DISPLAY_LEFT);
 222              		.loc 1 76 0
 223 0002 0020     		movs	r0, #0
 224 0004 FFF7FEFF 		bl	Seven_Clear
 225              	.LVL25:
  77:source\bsw/seven.c ****     Seven_Clear(SEVEN_DISPLAY_RIGHT);
 226              		.loc 1 77 0
 227 0008 0120     		movs	r0, #1
 228 000a FFF7FEFF 		bl	Seven_Clear
 229              	.LVL26:
  80:source\bsw/seven.c **** }
 230              		.loc 1 80 0
 231 000e 0020     		movs	r0, #0
 232 0010 08BD     		pop	{r3, pc}
 233              		.cfi_endproc
 234              	.LFE0:
ARM GAS  C:\Users\SAISWA~1\AppData\Local\Temp\ccImtKqm.s 			page 8


 235              		.size	Seven_init, .-Seven_init
 236              		.global	Seven_Lookup
 237 0012 00BF     		.section	.rodata
 238              		.align	2
 239              		.set	.LANCHOR0,. + 0
 240              		.type	Seven_Lookup, %object
 241              		.size	Seven_Lookup, 16
 242              	Seven_Lookup:
 243 0000 3F       		.byte	63
 244 0001 06       		.byte	6
 245 0002 5B       		.byte	91
 246 0003 4F       		.byte	79
 247 0004 66       		.byte	102
 248 0005 6D       		.byte	109
 249 0006 7D       		.byte	125
 250 0007 07       		.byte	7
 251 0008 7F       		.byte	127
 252 0009 6F       		.byte	111
 253 000a 77       		.byte	119
 254 000b FF       		.byte	-1
 255 000c 39       		.byte	57
 256 000d BF       		.byte	-65
 257 000e 79       		.byte	121
 258 000f 71       		.byte	113
 259              		.text
 260              	.Letext0:
 261              		.file 2 "source\\bsw\\global.h"
 262              		.file 3 "source\\bsw\\seven.h"